target datalayout = "e-m:e-p270:32:32-p271:32:32-p272:64:64-i64:64-i128:128-f80:128-n8:16:32:64-S128"
target triple = "x86_64-unknown-linux-gnu"

%"struct.node::AssertionInfo" = type { ptr, ptr, ptr }

@stderr = external global ptr, align 8
@_ZZN4node18CheckedUvLoopCloseEP9uv_loop_sE4args = internal constant %"struct.node::AssertionInfo" { ptr @.str.83, ptr @.str.84, ptr @.str.85 }, align 8

; Function Attrs: mustprogress nounwind uwtable
define dso_local void @_ZN4node18CheckedUvLoopCloseEP9uv_loop_s(ptr noundef %loop) #4 {
entry:
  %loop.addr = alloca ptr, align 8
  store ptr %loop, ptr %loop.addr, align 8
  %0 = load ptr, ptr %loop.addr, align 8
  %call = call i32 @uv_loop_close(ptr noundef %0)
  %cmp = icmp eq i32 %call, 0
  br i1 %cmp, label %if.then, label %if.end

if.then:                                          ; preds = %entry
  br label %do.end

if.end:                                           ; preds = %entry
  %1 = load ptr, ptr %loop.addr, align 8
  %2 = load ptr, ptr @stderr, align 8
  call void @_ZN4node27PrintLibuvHandleInformationEP9uv_loop_sP8_IO_FILE(ptr noundef %1, ptr noundef %2)
  %3 = load ptr, ptr @stderr, align 8
  %call1 = call i32 @fflush(ptr noundef %3)
  br label %do.body

do.body:                                          ; preds = %if.end
  call void @_ZN4node6AssertERKNS_13AssertionInfoE(ptr noundef nonnull align 8 dereferenceable(24) @_ZZN4node18CheckedUvLoopCloseEP9uv_loop_sE4args)
  call void @abort() #13
  unreachable

do.end:                                           ; preds = %if.then
  ret void
}