; Function Attrs: mustprogress nounwind uwtable
define dso_local void @_ZN4node18CheckedUvLoopCloseEP9uv_loop_s(ptr noundef %loop) local_unnamed_addr #3 {
entry:
  %call = tail call i32 @uv_loop_close(ptr noundef %loop) #17
  %cmp = icmp eq i32 %call, 0
  br i1 %cmp, label %do.end, label %if.end

if.end:                                           ; preds = %entry
  %0 = load ptr, ptr @stderr, align 8
  tail call void @_ZN4node27PrintLibuvHandleInformationEP9uv_loop_sP8_IO_FILE(ptr noundef %loop, ptr noundef %0)
  %1 = load ptr, ptr @stderr, align 8
  %call1 = tail call i32 @fflush(ptr noundef %1)
  tail call void @_ZN4node6AssertERKNS_13AssertionInfoE(ptr noundef nonnull align 8 dereferenceable(24) @_ZZN4node18CheckedUvLoopCloseEP9uv_loop_sE4args) #17
  tail call void @abort() #18
  unreachable

do.end:                                           ; preds = %entry
  ret void
}